#include <math.h>
#include <stdio.h>
#include <stdlib.h>
#include <string.h>

int main()
{
	int i,j,k,a[9][9],r,c,e,max,mac,minc;
	scanf("%d,%d",&r,&c);
	for(i=0;i<r;i++)
	{
		for(j=0;j<c;j++)
		{
			scanf("%d",&a[i][j]);
		}
	}
for(i=0;i<r;i++)
	{
		minc=i;
		max=-100;
		for(j=0;j<c;j++)
		{
			if(a[i][j]>max)
			{  max=a[i][j];
			   mac=j;
			}
			e=1;
			for(k=0;k<r;k++)
			{
				if(a[k][mac]<max)
				{
					e=0;
					break;}
			}
		}
			if(e){
				printf("%d+%d",minc,mac);
			return 0;}
		
	}
		printf("No\n");
			   return 0;
}

