; ModuleID = '35/2427.c'
source_filename = "35/2427.c"
target datalayout = "e-m:e-p270:32:32-p271:32:32-p272:64:64-i64:64-f80:128-n8:16:32:64-S128"
target triple = "x86_64-pc-linux-gnu"

@.str = private unnamed_addr constant [6 x i8] c"%d,%d\00", align 1
@.str.1 = private unnamed_addr constant [3 x i8] c"%d\00", align 1
@.str.2 = private unnamed_addr constant [6 x i8] c"%d+%d\00", align 1
@.str.3 = private unnamed_addr constant [4 x i8] c"No\0A\00", align 1

; Function Attrs: noinline nounwind uwtable
define dso_local i32 @main() #0 {
  %1 = alloca i32, align 4
  %2 = alloca i32, align 4
  %3 = alloca i32, align 4
  %4 = alloca i32, align 4
  %5 = alloca [9 x [9 x i32]], align 16
  %6 = alloca i32, align 4
  %7 = alloca i32, align 4
  %8 = alloca i32, align 4
  %9 = alloca i32, align 4
  %10 = alloca i32, align 4
  %11 = alloca i32, align 4
  store i32 0, i32* %1, align 4
  %12 = call i32 (i8*, ...) @__isoc99_scanf(i8* getelementptr inbounds ([6 x i8], [6 x i8]* @.str, i64 0, i64 0), i32* %6, i32* %7)
  store i32 0, i32* %2, align 4
  br label %13

13:                                               ; preds = %34, %0
  %14 = load i32, i32* %2, align 4
  %15 = load i32, i32* %6, align 4
  %16 = icmp slt i32 %14, %15
  br i1 %16, label %17, label %37

17:                                               ; preds = %13
  store i32 0, i32* %3, align 4
  br label %18

18:                                               ; preds = %30, %17
  %19 = load i32, i32* %3, align 4
  %20 = load i32, i32* %7, align 4
  %21 = icmp slt i32 %19, %20
  br i1 %21, label %22, label %33

22:                                               ; preds = %18
  %23 = load i32, i32* %2, align 4
  %24 = sext i32 %23 to i64
  %25 = getelementptr inbounds [9 x [9 x i32]], [9 x [9 x i32]]* %5, i64 0, i64 %24
  %26 = load i32, i32* %3, align 4
  %27 = sext i32 %26 to i64
  %28 = getelementptr inbounds [9 x i32], [9 x i32]* %25, i64 0, i64 %27
  %29 = call i32 (i8*, ...) @__isoc99_scanf(i8* getelementptr inbounds ([3 x i8], [3 x i8]* @.str.1, i64 0, i64 0), i32* %28)
  br label %30

30:                                               ; preds = %22
  %31 = load i32, i32* %3, align 4
  %32 = add nsw i32 %31, 1
  store i32 %32, i32* %3, align 4
  br label %18

33:                                               ; preds = %18
  br label %34

34:                                               ; preds = %33
  %35 = load i32, i32* %2, align 4
  %36 = add nsw i32 %35, 1
  store i32 %36, i32* %2, align 4
  br label %13

37:                                               ; preds = %13
  store i32 0, i32* %2, align 4
  br label %38

38:                                               ; preds = %99, %37
  %39 = load i32, i32* %2, align 4
  %40 = load i32, i32* %6, align 4
  %41 = icmp slt i32 %39, %40
  br i1 %41, label %42, label %102

42:                                               ; preds = %38
  %43 = load i32, i32* %2, align 4
  store i32 %43, i32* %11, align 4
  store i32 -100, i32* %9, align 4
  store i32 0, i32* %3, align 4
  br label %44

44:                                               ; preds = %88, %42
  %45 = load i32, i32* %3, align 4
  %46 = load i32, i32* %7, align 4
  %47 = icmp slt i32 %45, %46
  br i1 %47, label %48, label %91

48:                                               ; preds = %44
  %49 = load i32, i32* %2, align 4
  %50 = sext i32 %49 to i64
  %51 = getelementptr inbounds [9 x [9 x i32]], [9 x [9 x i32]]* %5, i64 0, i64 %50
  %52 = load i32, i32* %3, align 4
  %53 = sext i32 %52 to i64
  %54 = getelementptr inbounds [9 x i32], [9 x i32]* %51, i64 0, i64 %53
  %55 = load i32, i32* %54, align 4
  %56 = load i32, i32* %9, align 4
  %57 = icmp sgt i32 %55, %56
  br i1 %57, label %58, label %67

58:                                               ; preds = %48
  %59 = load i32, i32* %2, align 4
  %60 = sext i32 %59 to i64
  %61 = getelementptr inbounds [9 x [9 x i32]], [9 x [9 x i32]]* %5, i64 0, i64 %60
  %62 = load i32, i32* %3, align 4
  %63 = sext i32 %62 to i64
  %64 = getelementptr inbounds [9 x i32], [9 x i32]* %61, i64 0, i64 %63
  %65 = load i32, i32* %64, align 4
  store i32 %65, i32* %9, align 4
  %66 = load i32, i32* %3, align 4
  store i32 %66, i32* %10, align 4
  br label %67

67:                                               ; preds = %58, %48
  store i32 1, i32* %8, align 4
  store i32 0, i32* %4, align 4
  br label %68

68:                                               ; preds = %84, %67
  %69 = load i32, i32* %4, align 4
  %70 = load i32, i32* %6, align 4
  %71 = icmp slt i32 %69, %70
  br i1 %71, label %72, label %87

72:                                               ; preds = %68
  %73 = load i32, i32* %4, align 4
  %74 = sext i32 %73 to i64
  %75 = getelementptr inbounds [9 x [9 x i32]], [9 x [9 x i32]]* %5, i64 0, i64 %74
  %76 = load i32, i32* %10, align 4
  %77 = sext i32 %76 to i64
  %78 = getelementptr inbounds [9 x i32], [9 x i32]* %75, i64 0, i64 %77
  %79 = load i32, i32* %78, align 4
  %80 = load i32, i32* %9, align 4
  %81 = icmp slt i32 %79, %80
  br i1 %81, label %82, label %83

82:                                               ; preds = %72
  store i32 0, i32* %8, align 4
  br label %87

83:                                               ; preds = %72
  br label %84

84:                                               ; preds = %83
  %85 = load i32, i32* %4, align 4
  %86 = add nsw i32 %85, 1
  store i32 %86, i32* %4, align 4
  br label %68

87:                                               ; preds = %82, %68
  br label %88

88:                                               ; preds = %87
  %89 = load i32, i32* %3, align 4
  %90 = add nsw i32 %89, 1
  store i32 %90, i32* %3, align 4
  br label %44

91:                                               ; preds = %44
  %92 = load i32, i32* %8, align 4
  %93 = icmp ne i32 %92, 0
  br i1 %93, label %94, label %98

94:                                               ; preds = %91
  %95 = load i32, i32* %11, align 4
  %96 = load i32, i32* %10, align 4
  %97 = call i32 (i8*, ...) @printf(i8* getelementptr inbounds ([6 x i8], [6 x i8]* @.str.2, i64 0, i64 0), i32 %95, i32 %96)
  store i32 0, i32* %1, align 4
  br label %104

98:                                               ; preds = %91
  br label %99

99:                                               ; preds = %98
  %100 = load i32, i32* %2, align 4
  %101 = add nsw i32 %100, 1
  store i32 %101, i32* %2, align 4
  br label %38

102:                                              ; preds = %38
  %103 = call i32 (i8*, ...) @printf(i8* getelementptr inbounds ([4 x i8], [4 x i8]* @.str.3, i64 0, i64 0))
  store i32 0, i32* %1, align 4
  br label %104

104:                                              ; preds = %102, %94
  %105 = load i32, i32* %1, align 4
  ret i32 %105
}

declare dso_local i32 @__isoc99_scanf(i8*, ...) #1

declare dso_local i32 @printf(i8*, ...) #1


!llvm.module.flags = !{!0}
!llvm.ident = !{!1}

!0 = !{i32 1, !"wchar_size", i32 4}
!1 = !{!"clang version 10.0.0-4ubuntu1 "}
