; ModuleID = 'source-C-CXX/34/2427.c'
source_filename = "source-C-CXX/34/2427.c"
target datalayout = "e-m:e-p270:32:32-p271:32:32-p272:64:64-i64:64-f80:128-n8:16:32:64-S128"
target triple = "x86_64-pc-linux-gnu"

@.str = private unnamed_addr constant [6 x i8] c"%d,%d\00", align 1
@.str.1 = private unnamed_addr constant [3 x i8] c"%d\00", align 1
@.str.2 = private unnamed_addr constant [6 x i8] c"%d+%d\00", align 1
@str = private unnamed_addr constant [3 x i8] c"No\00", align 1

; Function Attrs: nofree nounwind sspstrong uwtable
define dso_local i32 @main() local_unnamed_addr #0 {
  %1 = alloca [9 x [9 x i32]], align 16
  %2 = alloca i32, align 4
  %3 = alloca i32, align 4
  %4 = bitcast [9 x [9 x i32]]* %1 to i8*
  call void @llvm.lifetime.start.p0i8(i64 324, i8* nonnull %4) #4
  %5 = bitcast i32* %2 to i8*
  call void @llvm.lifetime.start.p0i8(i64 4, i8* nonnull %5) #4
  %6 = bitcast i32* %3 to i8*
  call void @llvm.lifetime.start.p0i8(i64 4, i8* nonnull %6) #4
  %7 = call i32 (i8*, ...) @__isoc99_scanf(i8* getelementptr inbounds ([6 x i8], [6 x i8]* @.str, i64 0, i64 0), i32* nonnull %2, i32* nonnull %3)
  %8 = load i32, i32* %2, align 4, !tbaa !5
  %9 = icmp sgt i32 %8, 0
  %10 = load i32, i32* %3, align 4
  %11 = icmp sgt i32 %10, 0
  %12 = select i1 %9, i1 %11, i1 false
  br i1 %12, label %13, label %75

13:                                               ; preds = %0, %66
  %14 = phi i32 [ %67, %66 ], [ %8, %0 ]
  %15 = phi i32 [ %68, %66 ], [ %10, %0 ]
  %16 = phi i64 [ %69, %66 ], [ 0, %0 ]
  %17 = icmp sgt i32 %15, 0
  br i1 %17, label %56, label %66

18:                                               ; preds = %66
  %19 = icmp sgt i32 %67, 0
  %20 = icmp sgt i32 %68, 0
  %21 = select i1 %19, i1 %20, i1 false
  br i1 %21, label %22, label %75

22:                                               ; preds = %18
  %23 = zext i32 %67 to i64
  %24 = zext i32 %67 to i64
  %25 = zext i32 %68 to i64
  br label %26

26:                                               ; preds = %22, %29
  %27 = phi i64 [ 0, %22 ], [ %30, %29 ]
  %28 = phi i32 [ undef, %22 ], [ %41, %29 ]
  br label %32

29:                                               ; preds = %55
  %30 = add nuw nsw i64 %27, 1
  %31 = icmp eq i64 %30, %24
  br i1 %31, label %75, label %26, !llvm.loop !9

32:                                               ; preds = %52, %26
  %33 = phi i64 [ %53, %52 ], [ 0, %26 ]
  %34 = phi i32 [ %41, %52 ], [ %28, %26 ]
  %35 = phi i32 [ %39, %52 ], [ -100, %26 ]
  %36 = getelementptr inbounds [9 x [9 x i32]], [9 x [9 x i32]]* %1, i64 0, i64 %27, i64 %33
  %37 = load i32, i32* %36, align 4, !tbaa !5
  %38 = icmp sgt i32 %37, %35
  %39 = select i1 %38, i32 %37, i32 %35
  %40 = trunc i64 %33 to i32
  %41 = select i1 %38, i32 %40, i32 %34
  %42 = sext i32 %41 to i64
  br label %43

43:                                               ; preds = %43, %32
  %44 = phi i64 [ %48, %43 ], [ 0, %32 ]
  %45 = getelementptr inbounds [9 x [9 x i32]], [9 x [9 x i32]]* %1, i64 0, i64 %44, i64 %42
  %46 = load i32, i32* %45, align 4, !tbaa !5
  %47 = icmp slt i32 %46, %39
  %48 = add nuw nsw i64 %44, 1
  %49 = xor i1 %47, true
  %50 = icmp ult i64 %48, %23
  %51 = select i1 %49, i1 %50, i1 false
  br i1 %51, label %43, label %52, !llvm.loop !11

52:                                               ; preds = %43
  %53 = add nuw nsw i64 %33, 1
  %54 = icmp eq i64 %53, %25
  br i1 %54, label %55, label %32, !llvm.loop !12

55:                                               ; preds = %52
  br i1 %47, label %29, label %72

56:                                               ; preds = %13, %56
  %57 = phi i64 [ %60, %56 ], [ 0, %13 ]
  %58 = getelementptr inbounds [9 x [9 x i32]], [9 x [9 x i32]]* %1, i64 0, i64 %16, i64 %57
  %59 = call i32 (i8*, ...) @__isoc99_scanf(i8* getelementptr inbounds ([3 x i8], [3 x i8]* @.str.1, i64 0, i64 0), i32* nonnull %58)
  %60 = add nuw nsw i64 %57, 1
  %61 = load i32, i32* %3, align 4, !tbaa !5
  %62 = sext i32 %61 to i64
  %63 = icmp slt i64 %60, %62
  br i1 %63, label %56, label %64, !llvm.loop !13

64:                                               ; preds = %56
  %65 = load i32, i32* %2, align 4, !tbaa !5
  br label %66

66:                                               ; preds = %64, %13
  %67 = phi i32 [ %65, %64 ], [ %14, %13 ]
  %68 = phi i32 [ %61, %64 ], [ %15, %13 ]
  %69 = add nuw nsw i64 %16, 1
  %70 = sext i32 %67 to i64
  %71 = icmp slt i64 %69, %70
  br i1 %71, label %13, label %18, !llvm.loop !14

72:                                               ; preds = %55
  %73 = trunc i64 %27 to i32
  %74 = call i32 (i8*, ...) @printf(i8* nonnull dereferenceable(1) getelementptr inbounds ([6 x i8], [6 x i8]* @.str.2, i64 0, i64 0), i32 %73, i32 %41)
  br label %77

75:                                               ; preds = %29, %0, %18
  %76 = call i32 @puts(i8* nonnull dereferenceable(1) getelementptr inbounds ([3 x i8], [3 x i8]* @str, i64 0, i64 0))
  br label %77

77:                                               ; preds = %75, %72
  call void @llvm.lifetime.end.p0i8(i64 4, i8* nonnull %6) #4
  call void @llvm.lifetime.end.p0i8(i64 4, i8* nonnull %5) #4
  call void @llvm.lifetime.end.p0i8(i64 324, i8* nonnull %4) #4
  ret i32 0
}

; Function Attrs: argmemonly mustprogress nofree nosync nounwind willreturn
declare void @llvm.lifetime.start.p0i8(i64 immarg, i8* nocapture) #1

; Function Attrs: nofree nounwind
declare noundef i32 @__isoc99_scanf(i8* nocapture noundef readonly, ...) local_unnamed_addr #2

; Function Attrs: nofree nounwind
declare noundef i32 @printf(i8* nocapture noundef readonly, ...) local_unnamed_addr #2

; Function Attrs: argmemonly mustprogress nofree nosync nounwind willreturn
declare void @llvm.lifetime.end.p0i8(i64 immarg, i8* nocapture) #1

; Function Attrs: nofree nounwind
declare noundef i32 @puts(i8* nocapture noundef readonly) local_unnamed_addr #3


!llvm.module.flags = !{!0, !1, !2, !3}
!llvm.ident = !{!4}

!0 = !{i32 1, !"wchar_size", i32 4}
!1 = !{i32 7, !"PIC Level", i32 2}
!2 = !{i32 7, !"PIE Level", i32 2}
!3 = !{i32 7, !"uwtable", i32 1}
!4 = !{!"clang version 13.0.0"}
!5 = !{!6, !6, i64 0}
!6 = !{!"int", !7, i64 0}
!7 = !{!"omnipotent char", !8, i64 0}
!8 = !{!"Simple C/C++ TBAA"}
!9 = distinct !{!9, !10}
!10 = !{!"llvm.loop.mustprogress"}
!11 = distinct !{!11, !10}
!12 = distinct !{!12, !10}
!13 = distinct !{!13, !10}
!14 = distinct !{!14, !10, !15}
!15 = !{!"llvm.loop.unswitch.partial.disable"}
